(dp0
S'_AgentService:AgentInfo'
p1
(dp2
S'com.plexapp.agents.fanarttv'
p3
(lp4
(dp5
S'media_types'
p6
(lp7
S'Movie'
p8
asS'primary_provider'
p9
I00
sS'fallback_agent'
p10
NsS'contributes_to'
p11
(lp12
S'com.plexapp.agents.imdb'
p13
aS'com.plexapp.agents.themoviedb'
p14
asS'has_attribution'
p15
I01
sS'languages'
p16
(lp17
S'xn'
p18
asS'persist_stored_files'
p19
I01
sS'version'
p20
I0
sS'accepts_from'
p21
NsS'prefs'
p22
I01
sS'name'
p23
S'Fanart.tv'
p24
sa(dp25
S'media_types'
p26
(lp27
S'TV_Show'
p28
asS'primary_provider'
p29
I00
sS'fallback_agent'
p30
NsS'contributes_to'
p31
(lp32
S'com.plexapp.agents.thetvdb'
p33
aS'com.plexapp.agents.themoviedb'
p34
asg15
I01
sS'languages'
p35
(lp36
S'xn'
p37
asS'persist_stored_files'
p38
I01
sS'version'
p39
I0
sS'accepts_from'
p40
NsS'prefs'
p41
I01
sS'name'
p42
S'Fanart.tv'
p43
sa(dp44
S'media_types'
p45
(lp46
S'Artist'
p47
asS'primary_provider'
p48
I00
sS'fallback_agent'
p49
NsS'contributes_to'
p50
(lp51
S'com.plexapp.agents.lastfm'
p52
asg15
I01
sS'languages'
p53
(lp54
S'xn'
p55
asS'persist_stored_files'
p56
I01
sS'version'
p57
I0
sS'accepts_from'
p58
NsS'prefs'
p59
I01
sS'name'
p60
S'Fanart.tv'
p61
sa(dp62
S'media_types'
p63
(lp64
S'Album'
p65
asS'primary_provider'
p66
I00
sS'fallback_agent'
p67
NsS'contributes_to'
p68
(lp69
S'com.plexapp.agents.lastfm'
p70
asg15
I01
sS'languages'
p71
(lp72
S'xn'
p73
asS'persist_stored_files'
p74
I01
sS'version'
p75
I0
sS'accepts_from'
p76
NsS'prefs'
p77
I01
sS'name'
p78
S'Fanart.tv'
p79
sasS'com.plexapp.agents.none'
p80
(lp81
(dp82
S'media_types'
p83
(lp84
S'Movie'
p85
asS'primary_provider'
p86
I01
sS'fallback_agent'
p87
NsS'contributes_to'
p88
Nsg15
I00
sS'languages'
p89
(lp90
S'xn'
p91
asS'persist_stored_files'
p92
I01
sS'version'
p93
I0
sS'accepts_from'
p94
NsS'prefs'
p95
I00
sS'name'
p96
S'Personal Media'
p97
sa(dp98
S'media_types'
p99
(lp100
S'TV_Show'
p101
asS'primary_provider'
p102
I01
sS'fallback_agent'
p103
NsS'contributes_to'
p104
Nsg15
I00
sS'languages'
p105
(lp106
S'xn'
p107
asS'persist_stored_files'
p108
I01
sS'version'
p109
I0
sS'accepts_from'
p110
NsS'prefs'
p111
I00
sS'name'
p112
S'Personal Media Shows'
p113
sa(dp114
S'media_types'
p115
(lp116
S'Artist'
p117
asS'primary_provider'
p118
I01
sS'fallback_agent'
p119
NsS'contributes_to'
p120
Nsg15
I00
sS'languages'
p121
(lp122
S'xn'
p123
asS'persist_stored_files'
p124
I01
sS'version'
p125
I0
sS'accepts_from'
p126
NsS'prefs'
p127
I00
sS'name'
p128
S'Personal Media Artists'
p129
sa(dp130
S'media_types'
p131
(lp132
S'Album'
p133
asS'primary_provider'
p134
I01
sS'fallback_agent'
p135
NsS'contributes_to'
p136
Nsg15
I00
sS'languages'
p137
(lp138
S'xn'
p139
asS'persist_stored_files'
p140
I01
sS'version'
p141
I0
sS'accepts_from'
p142
NsS'prefs'
p143
I00
sS'name'
p144
S'Personal Media Albums'
p145
sa(dp146
S'media_types'
p147
(lp148
S'Photo'
p149
asS'primary_provider'
p150
I01
sS'fallback_agent'
p151
NsS'contributes_to'
p152
Nsg15
I00
sS'languages'
p153
(lp154
S'en'
p155
aS'ar'
p156
aS'bg'
p157
aS'ca'
p158
aS'cs'
p159
aS'cy'
p160
aS'da'
p161
aS'de'
p162
aS'el'
p163
aS'es'
p164
aS'et'
p165
aS'fa'
p166
aS'fi'
p167
aS'fr'
p168
aS'he'
p169
aS'hi'
p170
aS'hr'
p171
aS'ht'
p172
aS'hu'
p173
aS'id'
p174
aS'it'
p175
aS'ja'
p176
aS'ko'
p177
aS'lt'
p178
aS'lv'
p179
aS'ms'
p180
aS'mt'
p181
aS'nl'
p182
aS'no'
p183
aS'pl'
p184
aS'pt'
p185
aS'ro'
p186
aS'ru'
p187
aS'sk'
p188
aS'sv'
p189
aS'sl'
p190
aS'sr'
p191
aS'th'
p192
aS'tr'
p193
aS'uk'
p194
aS'ur'
p195
aS'vi'
p196
aS'zh'
p197
aS'xn'
p198
asS'persist_stored_files'
p199
I01
sS'version'
p200
I0
sS'accepts_from'
p201
NsS'prefs'
p202
I00
sS'name'
p203
S'Photos'
p204
sasS'com.plexapp.agents.opensubtitles'
p205
(lp206
(dp207
S'media_types'
p208
(lp209
S'Movie'
p210
asS'primary_provider'
p211
I00
sS'fallback_agent'
p212
NsS'contributes_to'
p213
(lp214
S'com.plexapp.agents.imdb'
p215
asg15
I00
sS'languages'
p216
(lp217
S'xn'
p218
asS'persist_stored_files'
p219
I01
sS'version'
p220
I0
sS'accepts_from'
p221
NsS'prefs'
p222
I01
sS'name'
p223
S'OpenSubtitles.org'
p224
sa(dp225
S'media_types'
p226
(lp227
S'TV_Show'
p228
asS'primary_provider'
p229
I00
sS'fallback_agent'
p230
NsS'contributes_to'
p231
(lp232
S'com.plexapp.agents.thetvdb'
p233
asg15
I00
sS'languages'
p234
(lp235
S'xn'
p236
asS'persist_stored_files'
p237
I01
sS'version'
p238
I0
sS'accepts_from'
p239
NsS'prefs'
p240
I01
sS'name'
p241
S'OpenSubtitles.org'
p242
sasS'com.plexapp.agents.imdb'
p243
(lp244
(dp245
S'media_types'
p246
(lp247
S'Movie'
p248
asS'primary_provider'
p249
I01
sS'fallback_agent'
p250
NsS'contributes_to'
p251
(lp252
S'com.plexapp.agents.themoviedb'
p253
asS'has_attribution'
p254
I01
sS'languages'
p255
(lp256
S'en'
p257
aS'sv'
p258
aS'fr'
p259
aS'es'
p260
aS'nl'
p261
aS'de'
p262
aS'it'
p263
aS'da'
p264
aS'ar'
p265
aS'ca'
p266
aS'zh'
p267
aS'cs'
p268
aS'et'
p269
aS'fi'
p270
aS'el'
p271
aS'he'
p272
aS'hi'
p273
aS'hu'
p274
aS'id'
p275
aS'ja'
p276
aS'ko'
p277
aS'lv'
p278
aS'no'
p279
aS'fa'
p280
aS'pl'
p281
aS'pt'
p282
aS'ro'
p283
aS'ru'
p284
aS'sk'
p285
aS'th'
p286
aS'tr'
p287
aS'uk'
p288
aS'vi'
p289
asS'persist_stored_files'
p290
I01
sS'version'
p291
I0
sS'accepts_from'
p292
(lp293
S'com.plexapp.agents.localmedia'
p294
asS'prefs'
p295
I01
sS'name'
p296
S'Plex Movie (Legacy)'
p297
sasS'com.plexapp.agents.lyricfind'
p298
(lp299
(dp300
S'media_types'
p301
(lp302
S'Album'
p303
asS'primary_provider'
p304
I00
sS'fallback_agent'
p305
NsS'contributes_to'
p306
(lp307
S'com.plexapp.agents.lastfm'
p308
aS'tv.plex.agents.music'
p309
aS'org.musicbrainz.agents.music'
p310
asg15
I01
sS'languages'
p311
(lp312
S'xn'
p313
asS'persist_stored_files'
p314
I01
sS'version'
p315
I0
sS'accepts_from'
p316
NsS'prefs'
p317
I00
sS'name'
p318
S'LyricFind'
p319
sasS'com.plexapp.agents.thetvdb'
p320
(lp321
(dp322
S'media_types'
p323
(lp324
S'TV_Show'
p325
asS'primary_provider'
p326
I01
sS'fallback_agent'
p327
NsS'contributes_to'
p328
Nsg15
I01
sS'languages'
p329
(lp330
S'en'
p331
aS'fr'
p332
aS'zh'
p333
aS'sv'
p334
aS'no'
p335
aS'da'
p336
aS'fi'
p337
aS'nl'
p338
aS'de'
p339
aS'it'
p340
aS'es'
p341
aS'pl'
p342
aS'hu'
p343
aS'el'
p344
aS'tr'
p345
aS'ru'
p346
aS'he'
p347
aS'ja'
p348
aS'pt'
p349
aS'cs'
p350
aS'ko'
p351
aS'sl'
p352
aS'hr'
p353
asS'persist_stored_files'
p354
I01
sS'version'
p355
I0
sS'accepts_from'
p356
NsS'prefs'
p357
I01
sS'name'
p358
S'TheTVDB'
p359
sasS'com.plexapp.agents.localmedia'
p360
(lp361
(dp362
S'media_types'
p363
(lp364
S'Movie'
p365
asS'primary_provider'
p366
I00
sS'fallback_agent'
p367
NsS'contributes_to'
p368
(lp369
S'com.plexapp.agents.imdb'
p370
aS'com.plexapp.agents.none'
p371
asg15
I00
sS'languages'
p372
(lp373
S'xn'
p374
asS'persist_stored_files'
p375
I00
sS'version'
p376
I0
sS'accepts_from'
p377
NsS'prefs'
p378
I01
sS'name'
p379
S'Local Media Assets (Movies)'
p380
sa(dp381
S'media_types'
p382
(lp383
S'TV_Show'
p384
asS'primary_provider'
p385
I00
sS'fallback_agent'
p386
NsS'contributes_to'
p387
(lp388
S'com.plexapp.agents.thetvdb'
p389
aS'com.plexapp.agents.none'
p390
asg15
I00
sS'languages'
p391
(lp392
S'xn'
p393
asS'persist_stored_files'
p394
I00
sS'version'
p395
I0
sS'accepts_from'
p396
NsS'prefs'
p397
I01
sS'name'
p398
S'Local Media Assets (TV)'
p399
sa(dp400
S'media_types'
p401
(lp402
S'Artist'
p403
asS'primary_provider'
p404
I00
sS'fallback_agent'
p405
NsS'contributes_to'
p406
(lp407
S'com.plexapp.agents.discogs'
p408
aS'com.plexapp.agents.lastfm'
p409
aS'com.plexapp.agents.plexmusic'
p410
aS'com.plexapp.agents.none'
p411
aS'tv.plex.agents.music'
p412
aS'org.musicbrainz.agents.music'
p413
asg15
I00
sS'languages'
p414
(lp415
S'xn'
p416
asS'persist_stored_files'
p417
I00
sS'version'
p418
I0
sS'accepts_from'
p419
NsS'prefs'
p420
I01
sS'name'
p421
S'Local Media Assets (Artists)'
p422
sa(dp423
S'media_types'
p424
(lp425
S'Artist'
p426
asS'primary_provider'
p427
I00
sS'fallback_agent'
p428
NsS'contributes_to'
p429
(lp430
S'com.plexapp.agents.plexmusic'
p431
asg15
I00
sS'languages'
p432
g415
sS'persist_stored_files'
p433
I00
sS'version'
p434
I2
sS'accepts_from'
p435
NsS'prefs'
p436
I01
sS'name'
p437
S'Local Media Assets (Artists)'
p438
sa(dp439
S'media_types'
p440
(lp441
S'Album'
p442
asS'primary_provider'
p443
I00
sS'fallback_agent'
p444
NsS'contributes_to'
p445
(lp446
S'com.plexapp.agents.discogs'
p447
aS'com.plexapp.agents.lastfm'
p448
aS'com.plexapp.agents.plexmusic'
p449
aS'com.plexapp.agents.none'
p450
aS'tv.plex.agents.music'
p451
aS'org.musicbrainz.agents.music'
p452
asg15
I00
sS'languages'
p453
(lp454
S'xn'
p455
asS'persist_stored_files'
p456
I00
sS'version'
p457
I0
sS'accepts_from'
p458
NsS'prefs'
p459
I01
sS'name'
p460
S'Local Media Assets (Albums)'
p461
sasS'com.plexapp.agents.lastfm'
p462
(lp463
(dp464
S'media_types'
p465
(lp466
S'Artist'
p467
asS'primary_provider'
p468
I01
sS'fallback_agent'
p469
NsS'contributes_to'
p470
Nsg15
I01
sS'languages'
p471
(lp472
S'en'
p473
aS'sv'
p474
aS'fr'
p475
aS'es'
p476
aS'de'
p477
aS'pl'
p478
aS'it'
p479
aS'pt'
p480
aS'ja'
p481
aS'tr'
p482
aS'ru'
p483
aS'zh'
p484
asS'persist_stored_files'
p485
I01
sS'version'
p486
I0
sS'accepts_from'
p487
NsS'prefs'
p488
I01
sS'name'
p489
S'Last.fm'
p490
sa(dp491
S'media_types'
p492
(lp493
S'Album'
p494
asS'primary_provider'
p495
I01
sS'fallback_agent'
p496
NsS'contributes_to'
p497
Nsg15
I01
sS'languages'
p498
(lp499
S'en'
p500
aS'sv'
p501
aS'fr'
p502
aS'es'
p503
aS'de'
p504
aS'pl'
p505
aS'it'
p506
aS'pt'
p507
aS'ja'
p508
aS'tr'
p509
aS'ru'
p510
aS'zh'
p511
asS'persist_stored_files'
p512
I01
sS'version'
p513
I0
sS'accepts_from'
p514
NsS'prefs'
p515
I01
sS'name'
p516
S'Last.fm'
p517
sasS'org.musicbrainz.agents.music'
p518
(lp519
(dp520
S'media_types'
p521
(lp522
S'Artist'
p523
asS'primary_provider'
p524
I01
sS'fallback_agent'
p525
NsS'contributes_to'
p526
Nsg15
I01
sS'languages'
p527
(lp528
S'en'
p529
aS'ar'
p530
aS'bg'
p531
aS'zh'
p532
aS'hr'
p533
aS'cs'
p534
aS'da'
p535
aS'nl'
p536
aS'fi'
p537
aS'fr'
p538
aS'de'
p539
aS'el'
p540
aS'hu'
p541
aS'id'
p542
aS'it'
p543
aS'ja'
p544
aS'ko'
p545
aS'nn'
p546
aS'pl'
p547
aS'pt'
p548
aS'ro'
p549
aS'ru'
p550
aS'sr'
p551
aS'sk'
p552
aS'es'
p553
aS'sv'
p554
aS'th'
p555
aS'tr'
p556
aS'vi'
p557
aS'xx'
p558
asS'persist_stored_files'
p559
I01
sS'version'
p560
I0
sS'accepts_from'
p561
NsS'prefs'
p562
I01
sS'name'
p563
S'Musicbrainz'
p564
sa(dp565
S'media_types'
p566
(lp567
S'Album'
p568
asS'primary_provider'
p569
I01
sS'fallback_agent'
p570
NsS'contributes_to'
p571
Nsg15
I01
sS'languages'
p572
g528
sS'persist_stored_files'
p573
I01
sS'version'
p574
I0
sS'accepts_from'
p575
NsS'prefs'
p576
I01
sS'name'
p577
S'Musicbrainz'
p578
sasS'com.plexapp.agents.themoviedb'
p579
(lp580
(dp581
S'media_types'
p582
(lp583
S'Movie'
p584
asS'primary_provider'
p585
I01
sS'fallback_agent'
p586
NsS'contributes_to'
p587
Nsg15
I01
sS'languages'
p588
(lp589
S'en'
p590
aS'cs'
p591
aS'da'
p592
aS'de'
p593
aS'el'
p594
aS'es'
p595
aS'fi'
p596
aS'fr'
p597
aS'he'
p598
aS'hr'
p599
aS'hu'
p600
aS'it'
p601
aS'lv'
p602
aS'lt'
p603
aS'nl'
p604
aS'no'
p605
aS'pl'
p606
aS'pt'
p607
aS'ru'
p608
aS'sk'
p609
aS'sv'
p610
aS'th'
p611
aS'tr'
p612
aS'vi'
p613
aS'zh'
p614
aS'ko'
p615
asS'persist_stored_files'
p616
I01
sS'version'
p617
I0
sS'accepts_from'
p618
(lp619
S'com.plexapp.agents.localmedia'
p620
asS'prefs'
p621
I01
sS'name'
p622
S'The Movie Database'
p623
sa(dp624
S'media_types'
p625
(lp626
S'TV_Show'
p627
asS'primary_provider'
p628
I01
sS'fallback_agent'
p629
NsS'contributes_to'
p630
(lp631
S'com.plexapp.agents.thetvdb'
p632
asg15
I01
sS'languages'
p633
g589
sS'persist_stored_files'
p634
I01
sS'version'
p635
I0
sS'accepts_from'
p636
(lp637
S'com.plexapp.agents.localmedia'
p638
aS'com.plexapp.agents.thetvdb'
p639
asS'prefs'
p640
I01
sS'name'
p641
S'The Movie Database'
p642
sasS'com.plexapp.agents.movieposterdb'
p643
(lp644
(dp645
S'media_types'
p646
(lp647
S'Movie'
p648
asS'primary_provider'
p649
I00
sS'fallback_agent'
p650
NsS'contributes_to'
p651
(lp652
S'com.plexapp.agents.imdb'
p653
asg15
I01
sS'languages'
p654
(lp655
S'xn'
p656
asS'persist_stored_files'
p657
I01
sS'version'
p658
I0
sS'accepts_from'
p659
NsS'prefs'
p660
I00
sS'name'
p661
S'CineMaterial'
p662
sasS'com.plexapp.agents.htbackdrops'
p663
(lp664
(dp665
S'media_types'
p666
(lp667
S'Artist'
p668
asS'primary_provider'
p669
I00
sS'fallback_agent'
p670
NsS'contributes_to'
p671
(lp672
S'com.plexapp.agents.lastfm'
p673
asg15
I01
sS'languages'
p674
(lp675
S'ab'
p676
aS'aa'
p677
aS'af'
p678
aS'ak'
p679
aS'sq'
p680
aS'am'
p681
aS'ar'
p682
aS'an'
p683
aS'hy'
p684
aS'as'
p685
aS'av'
p686
aS'ae'
p687
aS'ay'
p688
aS'az'
p689
aS'bm'
p690
aS'ba'
p691
aS'eu'
p692
aS'be'
p693
aS'bn'
p694
aS'bh'
p695
aS'bi'
p696
aS'bs'
p697
aS'pb'
p698
aS'br'
p699
aS'bg'
p700
aS'my'
p701
aS'ca'
p702
aS'ch'
p703
aS'ce'
p704
aS'ny'
p705
aS'zh'
p706
aS'cu'
p707
aS'cv'
p708
aS'kw'
p709
aS'co'
p710
aS'cr'
p711
aS'hr'
p712
aS'cs'
p713
aS'da'
p714
aS'dv'
p715
aS'nl'
p716
aS'dz'
p717
aS'en'
p718
aS'eo'
p719
aS'et'
p720
aS'ee'
p721
aS'fo'
p722
aS'fj'
p723
aS'fi'
p724
aS'fr'
p725
aS'fy'
p726
aS'ff'
p727
aS'gd'
p728
aS'gl'
p729
aS'lg'
p730
aS'ka'
p731
aS'de'
p732
aS'el'
p733
aS'gn'
p734
aS'gu'
p735
aS'ht'
p736
aS'ha'
p737
aS'he'
p738
aS'hz'
p739
aS'hi'
p740
aS'ho'
p741
aS'hu'
p742
aS'is'
p743
aS'io'
p744
aS'ig'
p745
aS'id'
p746
aS'ia'
p747
aS'ie'
p748
aS'iu'
p749
aS'ik'
p750
aS'ga'
p751
aS'it'
p752
aS'ja'
p753
aS'jv'
p754
aS'kl'
p755
aS'kn'
p756
aS'kr'
p757
aS'ks'
p758
aS'kk'
p759
aS'km'
p760
aS'ki'
p761
aS'rw'
p762
aS'ky'
p763
aS'kv'
p764
aS'kg'
p765
aS'ko'
p766
aS'kj'
p767
aS'ku'
p768
aS'lo'
p769
aS'la'
p770
aS'lv'
p771
aS'li'
p772
aS'ln'
p773
aS'lt'
p774
aS'lu'
p775
aS'lb'
p776
aS'mk'
p777
aS'mg'
p778
aS'ms'
p779
aS'ml'
p780
aS'mt'
p781
aS'gv'
p782
aS'mi'
p783
aS'mr'
p784
aS'mh'
p785
aS'mo'
p786
aS'mn'
p787
aS'na'
p788
aS'nv'
p789
aS'ng'
p790
aS'ne'
p791
aS'xn'
p792
aS'nd'
p793
aS'no'
p794
aS'nb'
p795
aS'nn'
p796
aS'oc'
p797
aS'oj'
p798
aS'or'
p799
aS'om'
p800
aS'os'
p801
aS'pi'
p802
aS'pa'
p803
aS'fa'
p804
aS'pl'
p805
aS'pt'
p806
aS'ps'
p807
aS'qu'
p808
aS'rm'
p809
aS'ro'
p810
aS'rn'
p811
aS'ru'
p812
aS'se'
p813
aS'sm'
p814
aS'sg'
p815
aS'sa'
p816
aS'sc'
p817
aS'sr'
p818
aS'sn'
p819
aS'ii'
p820
aS'sd'
p821
aS'si'
p822
aS'sk'
p823
aS'sl'
p824
aS'so'
p825
aS'st'
p826
aS'nr'
p827
aS'es'
p828
aS'su'
p829
aS'sw'
p830
aS'ss'
p831
aS'sv'
p832
aS'tl'
p833
aS'ty'
p834
aS'tg'
p835
aS'ta'
p836
aS'tt'
p837
aS'te'
p838
aS'th'
p839
aS'bo'
p840
aS'ti'
p841
aS'to'
p842
aS'ts'
p843
aS'tn'
p844
aS'tr'
p845
aS'tk'
p846
aS'tw'
p847
aS'ug'
p848
aS'uk'
p849
aS'ur'
p850
aS'uz'
p851
aS've'
p852
aS'vi'
p853
aS'vo'
p854
aS'wa'
p855
aS'cy'
p856
aS'wo'
p857
aS'xh'
p858
aS'yi'
p859
aS'yo'
p860
aS'za'
p861
aS'zu'
p862
asS'persist_stored_files'
p863
I01
sS'version'
p864
I0
sS'accepts_from'
p865
NsS'prefs'
p866
I00
sS'name'
p867
S'Home Theater Backdrops'
p868
sasS'com.plexapp.agents.plexthememusic'
p869
(lp870
(dp871
S'media_types'
p872
(lp873
S'TV_Show'
p874
asS'primary_provider'
p875
I00
sS'fallback_agent'
p876
NsS'contributes_to'
p877
(lp878
S'com.plexapp.agents.thetvdb'
p879
aS'com.plexapp.agents.thetvdbdvdorder'
p880
aS'com.plexapp.agents.themoviedb'
p881
asg15
I00
sS'languages'
p882
(lp883
S'xn'
p884
asS'persist_stored_files'
p885
I01
sS'version'
p886
I0
sS'accepts_from'
p887
NsS'prefs'
p888
I00
sS'name'
p889
S'Plex Theme Music'
p890
sass.